; Function Attrs: mustprogress uwtable
define void @_ZN20MeshLabOptionsDialog19updateSingleSettingERK13RichParameter(ptr noundef nonnull align 8 dereferenceable(80) %0, ptr noundef nonnull align 8 dereferenceable(56) %1) local_unnamed_addr #3 align 2 {
  %3 = getelementptr inbounds i8, ptr %0, i64 48
  %4 = load ptr, ptr %3, align 8
  %5 = tail call noundef nonnull align 8 dereferenceable(8) ptr @_ZNK13RichParameter4nameEv(ptr noundef nonnull align 8 dereferenceable(56) %1)
  %6 = tail call noundef nonnull align 8 dereferenceable(8) ptr @_ZNK13RichParameter5valueEv(ptr noundef nonnull align 8 dereferenceable(56) %1)
  tail call void @_ZN17RichParameterList8setValueERK7QStringRK5Value(ptr noundef nonnull align 8 dereferenceable(24) %4, ptr noundef nonnull align 8 dereferenceable(8) %5, ptr noundef nonnull align 8 dereferenceable(8) %6)
  tail call void @_ZN20MeshLabOptionsDialog14updateSettingsEv(ptr noundef nonnull align 8 dereferenceable(80) %0)
  tail call void @_ZN20MeshLabOptionsDialog18applyCustomSettingEv(ptr noundef nonnull align 8 dereferenceable(80) %0)
  ret void
}